; Function Attrs: nounwind uwtable
define internal i64 @b64_callback_ctrl(ptr noundef %0, i32 noundef %1, ptr noundef %2) #2 {
  %4 = tail call ptr @BIO_next(ptr noundef %0) #8
  %5 = icmp eq ptr %4, null
  br i1 %5, label %8, label %6

6:                                                ; preds = %3
  %7 = tail call i64 @BIO_callback_ctrl(ptr noundef nonnull %4, i32 noundef %1, ptr noundef %2) #8
  br label %8

8:                                                ; preds = %3, %6
  %.0 = phi i64 [ %7, %6 ], [ 0, %3 ]
  ret i64 %.0
}